; Function Attrs: nounwind uwtable
define internal void @typealias_dealloc(ptr noundef %0) #0 {
  %2 = getelementptr i8, ptr %0, i64 8
  %.val14 = load ptr, ptr %2, align 8, !tbaa !18
  %3 = getelementptr i8, ptr %0, i64 -16
  %4 = getelementptr i8, ptr %0, i64 -8
  %.val.i = load i64, ptr %4, align 8, !tbaa !113
  %5 = and i64 %.val.i, -4
  %6 = inttoptr i64 %5 to ptr
  %.val9.i = load i64, ptr %3, align 8, !tbaa !114
  %7 = and i64 %.val9.i, -4
  %8 = inttoptr i64 %7 to ptr
  %9 = load i64, ptr %6, align 8, !tbaa !114
  %10 = and i64 %9, 3
  %11 = or disjoint i64 %10, %7
  store i64 %11, ptr %6, align 8, !tbaa !114
  %12 = getelementptr inbounds nuw i8, ptr %8, i64 8
  %13 = load i64, ptr %12, align 8, !tbaa !113
  %14 = and i64 %13, 3
  %15 = or disjoint i64 %14, %5
  store i64 %15, ptr %12, align 8, !tbaa !113
  store i64 0, ptr %3, align 8, !tbaa !114
  %16 = load i64, ptr %4, align 8, !tbaa !113
  %17 = and i64 %16, 1
  store i64 %17, ptr %4, align 8, !tbaa !113
  %18 = getelementptr inbounds nuw i8, ptr %0, i64 16
  %19 = load ptr, ptr %18, align 8, !tbaa !132
  %20 = load i32, ptr %19, align 8, !tbaa !27
  %.not.i11 = icmp sgt i32 %20, -1
  br i1 %.not.i11, label %21, label %Py_DECREF.exit12

21:                                               ; preds = %1
  %22 = add nsw i32 %20, -1
  store i32 %22, ptr %19, align 8, !tbaa !27
  %23 = icmp eq i32 %22, 0
  br i1 %23, label %24, label %Py_DECREF.exit12

24:                                               ; preds = %21
  tail call void @_Py_Dealloc(ptr noundef nonnull %19) #8
  br label %Py_DECREF.exit12

Py_DECREF.exit12:                                 ; preds = %1, %21, %24
  %25 = getelementptr inbounds nuw i8, ptr %0, i64 24
  %26 = load ptr, ptr %25, align 8, !tbaa !134
  %.not.i15 = icmp eq ptr %26, null
  br i1 %.not.i15, label %Py_XDECREF.exit, label %27

27:                                               ; preds = %Py_DECREF.exit12
  %28 = load i32, ptr %26, align 8, !tbaa !27
  %.not.i.i = icmp sgt i32 %28, -1
  br i1 %.not.i.i, label %29, label %Py_XDECREF.exit

29:                                               ; preds = %27
  %30 = add nsw i32 %28, -1
  store i32 %30, ptr %26, align 8, !tbaa !27
  %31 = icmp eq i32 %30, 0
  br i1 %31, label %32, label %Py_XDECREF.exit

32:                                               ; preds = %29
  tail call void @_Py_Dealloc(ptr noundef nonnull %26) #8
  br label %Py_XDECREF.exit

Py_XDECREF.exit:                                  ; preds = %Py_DECREF.exit12, %27, %29, %32
  %33 = getelementptr inbounds nuw i8, ptr %0, i64 32
  %34 = load ptr, ptr %33, align 8, !tbaa !135
  %.not.i16 = icmp eq ptr %34, null
  br i1 %.not.i16, label %Py_XDECREF.exit18, label %35

35:                                               ; preds = %Py_XDECREF.exit
  %36 = load i32, ptr %34, align 8, !tbaa !27
  %.not.i.i17 = icmp sgt i32 %36, -1
  br i1 %.not.i.i17, label %37, label %Py_XDECREF.exit18

37:                                               ; preds = %35
  %38 = add nsw i32 %36, -1
  store i32 %38, ptr %34, align 8, !tbaa !27
  %39 = icmp eq i32 %38, 0
  br i1 %39, label %40, label %Py_XDECREF.exit18

40:                                               ; preds = %37
  tail call void @_Py_Dealloc(ptr noundef nonnull %34) #8
  br label %Py_XDECREF.exit18

Py_XDECREF.exit18:                                ; preds = %Py_XDECREF.exit, %35, %37, %40
  %41 = getelementptr inbounds nuw i8, ptr %0, i64 40
  %42 = load ptr, ptr %41, align 8, !tbaa !136
  %.not.i19 = icmp eq ptr %42, null
  br i1 %.not.i19, label %Py_XDECREF.exit21, label %43

43:                                               ; preds = %Py_XDECREF.exit18
  %44 = load i32, ptr %42, align 8, !tbaa !27
  %.not.i.i20 = icmp sgt i32 %44, -1
  br i1 %.not.i.i20, label %45, label %Py_XDECREF.exit21

45:                                               ; preds = %43
  %46 = add nsw i32 %44, -1
  store i32 %46, ptr %42, align 8, !tbaa !27
  %47 = icmp eq i32 %46, 0
  br i1 %47, label %48, label %Py_XDECREF.exit21

48:                                               ; preds = %45
  tail call void @_Py_Dealloc(ptr noundef nonnull %42) #8
  br label %Py_XDECREF.exit21

Py_XDECREF.exit21:                                ; preds = %Py_XDECREF.exit18, %43, %45, %48
  %49 = getelementptr inbounds nuw i8, ptr %0, i64 48
  %50 = load ptr, ptr %49, align 8, !tbaa !137
  %.not.i22 = icmp eq ptr %50, null
  br i1 %.not.i22, label %Py_XDECREF.exit24, label %51

51:                                               ; preds = %Py_XDECREF.exit21
  %52 = load i32, ptr %50, align 8, !tbaa !27
  %.not.i.i23 = icmp sgt i32 %52, -1
  br i1 %.not.i.i23, label %53, label %Py_XDECREF.exit24

53:                                               ; preds = %51
  %54 = add nsw i32 %52, -1
  store i32 %54, ptr %50, align 8, !tbaa !27
  %55 = icmp eq i32 %54, 0
  br i1 %55, label %56, label %Py_XDECREF.exit24

56:                                               ; preds = %53
  tail call void @_Py_Dealloc(ptr noundef nonnull %50) #8
  br label %Py_XDECREF.exit24

Py_XDECREF.exit24:                                ; preds = %Py_XDECREF.exit21, %51, %53, %56
  %.val = load ptr, ptr %2, align 8, !tbaa !18
  %57 = getelementptr inbounds nuw i8, ptr %.val, i64 320
  %58 = load ptr, ptr %57, align 8, !tbaa !116
  tail call void %58(ptr noundef nonnull %0) #8
  %59 = load i32, ptr %.val14, align 8, !tbaa !27
  %.not.i = icmp sgt i32 %59, -1
  br i1 %.not.i, label %60, label %Py_DECREF.exit

60:                                               ; preds = %Py_XDECREF.exit24
  %61 = add nsw i32 %59, -1
  store i32 %61, ptr %.val14, align 8, !tbaa !27
  %62 = icmp eq i32 %61, 0
  br i1 %62, label %63, label %Py_DECREF.exit

63:                                               ; preds = %60
  tail call void @_Py_Dealloc(ptr noundef nonnull %.val14) #8
  br label %Py_DECREF.exit

Py_DECREF.exit:                                   ; preds = %Py_XDECREF.exit24, %60, %63
  ret void
}